target datalayout = "e-m:e-p270:32:32-p271:32:32-p272:64:64-i64:64-i128:128-f80:128-n8:16:32:64-S128"
target triple = "x86_64-pc-linux-gnu"

%struct.decContext = type { i32, i32, i32, i32, i32, i32, i8 }

; Function Attrs: nounwind uwtable
define dso_local ptr @decNumberToIntegralValue(ptr noundef %0, ptr noundef %1, ptr noundef %2) #0 {
  %4 = alloca ptr, align 8
  %5 = alloca ptr, align 8
  %6 = alloca ptr, align 8
  %7 = alloca %struct.decContext, align 4
  store ptr %0, ptr %4, align 8, !tbaa !4
  store ptr %1, ptr %5, align 8, !tbaa !4
  store ptr %2, ptr %6, align 8, !tbaa !4
  call void @llvm.lifetime.start.p0(i64 28, ptr %7) #7
  %8 = load ptr, ptr %6, align 8, !tbaa !4
  call void @llvm.memcpy.p0.p0.i64(ptr align 4 %7, ptr align 4 %8, i64 28, i1 false), !tbaa.struct !57
  %9 = getelementptr inbounds nuw %struct.decContext, ptr %7, i32 0, i32 4
  store i32 0, ptr %9, align 4, !tbaa !88
  %10 = load ptr, ptr %4, align 8, !tbaa !4
  %11 = load ptr, ptr %5, align 8, !tbaa !4
  %12 = call ptr @decNumberToIntegralExact(ptr noundef %10, ptr noundef %11, ptr noundef %7)
  %13 = getelementptr inbounds nuw %struct.decContext, ptr %7, i32 0, i32 5
  %14 = load i32, ptr %13, align 4, !tbaa !89
  %15 = and i32 %14, 128
  %16 = load ptr, ptr %6, align 8, !tbaa !4
  %17 = getelementptr inbounds nuw %struct.decContext, ptr %16, i32 0, i32 5
  %18 = load i32, ptr %17, align 4, !tbaa !89
  %19 = or i32 %18, %15
  store i32 %19, ptr %17, align 4, !tbaa !89
  %20 = load ptr, ptr %4, align 8, !tbaa !4
  call void @llvm.lifetime.end.p0(i64 28, ptr %7) #7
  ret ptr %20
}