; Function Attrs: nounwind uwtable
define dso_local noundef ptr @decNumberToIntegralValue(ptr noundef returned %0, ptr noundef captures(address) %1, ptr noundef captures(none) %2) local_unnamed_addr #4 {
  %4 = alloca %struct.decContext, align 4
  call void @llvm.lifetime.start.p0(i64 28, ptr nonnull %4) #18
  call void @llvm.memcpy.p0.p0.i64(ptr noundef nonnull align 4 dereferenceable(28) %4, ptr noundef nonnull align 4 dereferenceable(28) %2, i64 28, i1 false), !tbaa.struct !46
  %5 = getelementptr inbounds nuw i8, ptr %4, i64 16
  store i32 0, ptr %5, align 4, !tbaa !73
  %6 = call ptr @decNumberToIntegralExact(ptr noundef %0, ptr noundef %1, ptr noundef nonnull %4)
  %7 = getelementptr inbounds nuw i8, ptr %4, i64 20
  %8 = load i32, ptr %7, align 4, !tbaa !74
  %9 = and i32 %8, 128
  %10 = getelementptr inbounds nuw i8, ptr %2, i64 20
  %11 = load i32, ptr %10, align 4, !tbaa !74
  %12 = or i32 %11, %9
  store i32 %12, ptr %10, align 4, !tbaa !74
  call void @llvm.lifetime.end.p0(i64 28, ptr nonnull %4) #18
  ret ptr %0
}